target datalayout = "e-m:e-p270:32:32-p271:32:32-p272:64:64-i64:64-i128:128-f80:128-n8:16:32:64-S128"
target triple = "x86_64-unknown-linux-gnu"

%"class.sat::literal" = type { i32 }
%"class.sat::use_list" = type { %class.vector }
%class.vector = type { ptr }
%class.ptr_vector = type { %class.vector.0 }
%class.vector.0 = type { ptr }
%class.approx_set_tpl = type { i32 }
%"class.sat::simplifier" = type { ptr, i32, %"class.sat::use_list", %"class.sat::ext_use_list", %"class.sat::clause_set", %class.svector.3, i32, %class.tracked_uint_set, i8, %"class.sat::tmp_clause", %class.svector.5, i32, i32, i8, i8, i8, i8, i32, i8, i8, i32, i8, i32, i8, i8, i32, i32, i32, i32, i32, i32, i32, i32, i32, i32, i8, i32, i8, i8, i32, i32, i32, i32, i32, i32, i32, i32, i32, i32, i32, i8, i32, %class.ptr_vector, %class.svector.7, %class.svector.9, %class.svector.9, %class.svector.7 }
%"class.sat::ext_use_list" = type { %class.vector.1 }
%class.vector.1 = type { ptr }
%"class.sat::clause_set" = type { %class.svector, %class.ptr_vector }
%class.svector = type { %class.vector.2 }
%class.vector.2 = type { ptr }
%class.svector.3 = type { %class.vector.4 }
%class.vector.4 = type { ptr }
%class.tracked_uint_set = type { %class.svector.5, %class.svector }
%"class.sat::tmp_clause" = type { ptr }
%class.svector.5 = type { %class.vector.6 }
%class.vector.6 = type { ptr }
%class.svector.9 = type { %class.vector.10 }
%class.vector.10 = type { ptr }
%class.svector.7 = type { %class.vector.8 }
%class.vector.8 = type { ptr }
%class.params_ref = type { ptr }
%"struct.sat::config" = type <{ i64, i32, i32, i32, i8, [3 x i8], i32, i32, double, i32, i8, [3 x i8], i32, i8, [3 x i8], i32, [4 x i8], double, double, i32, i32, double, double, i32, [4 x i8], %class.symbol, double, i32, i32, i8, [3 x i8], i32, i32, i8, [3 x i8], i32, i8, [3 x i8], i32, i8, [3 x i8], i32, i8, i8, i8, i8, i32, i8, i8, i8, i8, i8, i8, i8, i8, i32, i8, i8, i8, i8, i32, double, i32, [4 x i8], double, double, double, double, i32, i8, i8, [2 x i8], double, i8, i8, [2 x i8], i32, double, i32, i32, i32, i32, i32, i32, i32, i32, i8, i8, i8, i8, i32, i32, i8, i8, i8, i8, i8, i8, i8, [5 x i8], %class.symbol, i8, i8, i8, i8, i8, i8, [2 x i8], i32, i32, i32, i8, [3 x i8], double, double, double, double, double, i8, [7 x i8] }>
%class.symbol = type { ptr }
%"class.sat::solver" = type { %"class.sat::solver_core", i8, [7 x i8], %"struct.sat::config", %"struct.sat::stats", %class.scoped_ptr, %class.scoped_ptr.11, ptr, %"class.sat::drat", [2 x %"class.sat::clause_allocator"], i8, %class.random_gen, %"class.sat::cleaner", %class.svector.23, %"class.sat::model_converter", i8, %"class.sat::simplifier", %"class.sat::scc", %"class.sat::asymm_branch", %"class.sat::probing", i8, [7 x i8], %"class.sat::mus", %"class.sat::binspr", i8, i8, [6 x i8], %"class.sat::justification", %"class.sat::literal", %class.ptr_vector, %class.ptr_vector, i32, %class.svector, %class.svector, %class.svector, %class.svector, %class.vector.40, %class.svector.23, %class.svector.41, %class.svector.26, %class.svector.26, %class.svector.26, %class.svector.26, %class.svector.26, %class.svector, %class.svector, i32, %class.svector.7, %class.svector, i32, %class.svector.43, %class.svector.43, %class.svector.43, %class.svector.43, %class.svector.43, i32, double, %class.svector.26, %class.svector.26, %class.svector.26, %class.svector.5, i32, i32, i32, i32, i32, i32, %"struct.sat::backoff", i32, i32, %"struct.sat::backoff", %"struct.sat::backoff", %class.var_queue, i32, i32, i32, %class.ema, %class.ema, %class.ema, %class.ema, %class.ema, %class.svector.7, %class.svector.9, %"class.std::__cxx11::basic_string", i8, %class.visit_helper, %class.svector.45, %class.scoped_limit_trail, %class.stopwatch, %class.params_ref, %"struct.sat::no_drat_params", %class.scoped_ptr.38, %class.svector.7, %"class.sat::literal_set", %"class.sat::literal_set", %class.svector.7, i32, i32, i32, i32, i8, ptr, ptr, %class.statistics, i32, i32, i32, i32, i8, i32, i32, i32, i32, i32, i32, i32, double, i32, double, i8, i8, %class.svector.7, i8, %class.svector.43, i32, i32, i32, %class.svector.7, %class.svector.7, %class.svector.5, %class.svector, %class.approx_set_tpl, %class.svector.7, %class.svector.7, %class.vector.22, %class.svector.7, %class.svector.36, %class.u_map, %class.svector.7 }
%"class.sat::solver_core" = type { ptr, ptr }
%"struct.sat::stats" = type { i32, i32, i32, i32, i32, i32, i32, i32, i32, i32, i32, i32, i32, i32, i32, i32, i32, i32, i32, i32, i32 }
%class.scoped_ptr = type { ptr }
%class.scoped_ptr.11 = type { ptr }
%"class.sat::drat" = type { ptr, %class.svector.12, ptr, %"class.sat::clause_allocator", ptr, ptr, %class.svector.18, %class.svector.20, %class.vector.22, %class.svector.23, i8, i8, i8, i8, i8, %"struct.sat::drat::stats" }
%class.svector.12 = type { %class.vector.13 }
%class.vector.13 = type { ptr }
%"class.sat::clause_allocator" = type { %class.sat_allocator, %class.id_gen }
%class.sat_allocator = type { ptr, i64, %class.ptr_vector.14, ptr, [65 x %class.ptr_vector.16] }
%class.ptr_vector.14 = type { %class.vector.15 }
%class.vector.15 = type { ptr }
%class.ptr_vector.16 = type { %class.vector.17 }
%class.vector.17 = type { ptr }
%class.id_gen = type { i32, %class.svector }
%class.svector.18 = type { %class.vector.19 }
%class.vector.19 = type { ptr }
%class.svector.20 = type { %class.vector.21 }
%class.vector.21 = type { ptr }
%"struct.sat::drat::stats" = type { i32, i32, i32, i32 }
%class.random_gen = type { i32 }
%"class.sat::cleaner" = type { ptr, i32, i32, i32, i32 }
%"class.sat::model_converter" = type { %class.vector.25, i32, %class.svector.26, ptr, %class.svector.28 }
%class.vector.25 = type { ptr }
%class.svector.28 = type { %class.vector.29 }
%class.vector.29 = type { ptr }
%"class.sat::scc" = type { ptr, i8, i8, i32, i32, %"class.sat::big" }
%"class.sat::big" = type { ptr, i32, %class.vector.30, %class.svector.26, %class.svector.31, %class.svector.31, %class.svector.7, %class.svector.7, i8, i8, %class.vector.30 }
%class.svector.31 = type { %class.vector.32 }
%class.vector.32 = type { ptr }
%class.vector.30 = type { ptr }
%"class.sat::asymm_branch" = type { ptr, %class.params_ref, i64, %class.random_gen, i32, i32, i8, i32, i32, i8, i8, i64, i32, i32, i32, %class.svector.7, %class.svector.7, %class.svector.33, %class.svector.33, %class.svector.7, %class.svector.7 }
%class.svector.33 = type { %class.vector.34 }
%class.vector.34 = type { ptr }
%"class.sat::probing" = type { ptr, i32, %"class.sat::literal_set", %class.svector.7, i32, i8, i32, i8, i8, i64, i32, %class.vector.35, %class.svector.36, %"class.sat::big" }
%class.vector.35 = type { ptr }
%"class.sat::mus" = type <{ ptr, %class.svector.7, %class.svector.7, i8, [7 x i8], %class.svector.23, i32, [4 x i8] }>
%"class.sat::binspr" = type <{ ptr, %class.scoped_ptr.38, i32, i32, %class.vector.39, i32, i32, %class.svector.26, %class.svector.26, %class.svector.7, %class.svector.7, i32, i32, i32, i32, i32, [4 x i32], [5 x i32], [5 x i32], [4 x i8] }>
%class.vector.39 = type { ptr }
%"class.sat::justification" = type <{ i32, [4 x i8], i64, i32, [4 x i8] }>
%class.vector.40 = type { ptr }
%class.svector.23 = type { %class.vector.24 }
%class.vector.24 = type { ptr }
%class.svector.41 = type { %class.vector.42 }
%class.vector.42 = type { ptr }
%class.svector.26 = type { %class.vector.27 }
%class.vector.27 = type { ptr }
%"struct.sat::backoff" = type { i32, i32, i32, i32, i32 }
%class.var_queue = type { %class.heap }
%class.heap = type { %"struct.var_queue<svector<unsigned int>>::lt", %class.svector.31, %class.svector.31 }
%"struct.var_queue<svector<unsigned int>>::lt" = type { ptr }
%class.ema = type { double, double, double, i32, i32 }
%"class.std::__cxx11::basic_string" = type { %"struct.std::__cxx11::basic_string<char>::_Alloc_hider", i64, %union.anon }
%"struct.std::__cxx11::basic_string<char>::_Alloc_hider" = type { ptr }
%union.anon = type { i64, [8 x i8] }
%class.visit_helper = type { %class.svector, i32, i32 }
%class.svector.45 = type { %class.vector.46 }
%class.vector.46 = type { ptr }
%class.scoped_limit_trail = type { %class.svector, i32, i32 }
%class.stopwatch = type <{ %"class.std::chrono::time_point", %"class.std::chrono::duration", i8, [7 x i8] }>
%"class.std::chrono::time_point" = type { %"class.std::chrono::duration" }
%"class.std::chrono::duration" = type { i64 }
%"struct.sat::no_drat_params" = type { %class.params_ref }
%class.scoped_ptr.38 = type { ptr }
%"class.sat::literal_set" = type { %class.tracked_uint_set }
%class.statistics = type { %class.svector.47, %class.svector.49 }
%class.svector.47 = type { %class.vector.48 }
%class.vector.48 = type { ptr }
%class.svector.49 = type { %class.vector.50 }
%class.vector.50 = type { ptr }
%class.svector.43 = type { %class.vector.44 }
%class.vector.44 = type { ptr }
%class.vector.22 = type { ptr }
%class.svector.36 = type { %class.vector.37 }
%class.vector.37 = type { ptr }
%class.u_map = type { %class.map }
%class.map = type { %class.table2map }
%class.table2map = type { %class.core_hashtable }
%class.core_hashtable = type <{ ptr, i32, i32, i32, [4 x i8] }>

; Function Attrs: mustprogress nounwind uwtable
define hidden noundef zeroext i1 @_ZNK3sat10simplifier15single_threadedEv(ptr noundef nonnull align 8 dereferenceable(288) %this) #4 align 2 {
entry:
  %this.addr = alloca ptr, align 8
  store ptr %this, ptr %this.addr, align 8
  %this1 = load ptr, ptr %this.addr, align 8
  %s = getelementptr inbounds %"class.sat::simplifier", ptr %this1, i32 0, i32 0
  %0 = load ptr, ptr %s, align 8
  %m_config = getelementptr inbounds %"class.sat::solver", ptr %0, i32 0, i32 3
  %m_num_threads = getelementptr inbounds %"struct.sat::config", ptr %m_config, i32 0, i32 32
  %1 = load i32, ptr %m_num_threads, align 8
  %cmp = icmp eq i32 %1, 1
  ret i1 %cmp
}

; Function Attrs: mustprogress uwtable
define hidden noundef zeroext i1 @_ZNK3sat10simplifier21elim_vars_bdd_enabledEv(ptr noundef nonnull align 8 dereferenceable(288) %this) #5 align 2 {
entry:
  %this.addr = alloca ptr, align 8
  store ptr %this, ptr %this.addr, align 8
  %this1 = load ptr, ptr %this.addr, align 8
  %m_incremental_mode = getelementptr inbounds %"class.sat::simplifier", ptr %this1, i32 0, i32 23
  %0 = load i8, ptr %m_incremental_mode, align 8
  %tobool = trunc i8 %0 to i1
  br i1 %tobool, label %land.end, label %land.lhs.true

land.lhs.true:                                    ; preds = %entry
  %s = getelementptr inbounds %"class.sat::simplifier", ptr %this1, i32 0, i32 0
  %1 = load ptr, ptr %s, align 8
  %call = call noundef zeroext i1 @_ZNK3sat6solver20tracking_assumptionsEv(ptr noundef nonnull align 8 dereferenceable(4408) %1)
  br i1 %call, label %land.end, label %land.lhs.true2

land.lhs.true2:                                   ; preds = %land.lhs.true
  %m_elim_vars_bdd = getelementptr inbounds %"class.sat::simplifier", ptr %this1, i32 0, i32 38
  %2 = load i8, ptr %m_elim_vars_bdd, align 1
  %tobool3 = trunc i8 %2 to i1
  br i1 %tobool3, label %land.lhs.true4, label %land.end

land.lhs.true4:                                   ; preds = %land.lhs.true2
  %m_num_calls = getelementptr inbounds %"class.sat::simplifier", ptr %this1, i32 0, i32 1
  %3 = load i32, ptr %m_num_calls, align 8
  %m_elim_vars_bdd_delay = getelementptr inbounds %"class.sat::simplifier", ptr %this1, i32 0, i32 39
  %4 = load i32, ptr %m_elim_vars_bdd_delay, align 8
  %cmp = icmp uge i32 %3, %4
  br i1 %cmp, label %land.rhs, label %land.end

land.rhs:                                         ; preds = %land.lhs.true4
  %call5 = call noundef zeroext i1 @_ZNK3sat10simplifier15single_threadedEv(ptr noundef nonnull align 8 dereferenceable(288) %this1)
  br label %land.end

land.end:                                         ; preds = %land.rhs, %land.lhs.true4, %land.lhs.true2, %land.lhs.true, %entry
  %5 = phi i1 [ false, %land.lhs.true4 ], [ false, %land.lhs.true2 ], [ false, %land.lhs.true ], [ false, %entry ], [ %call5, %land.rhs ]
  ret i1 %5
}